target datalayout = "e-m:e-p270:32:32-p271:32:32-p272:64:64-i64:64-i128:128-f80:128-n8:16:32:64-S128"
target triple = "x86_64-pc-linux-gnu"

%struct.darktable_t = type { %struct.dt_codepath_t, i32, i32, ptr, ptr, ptr, ptr, ptr, ptr, ptr, ptr, ptr, ptr, ptr, ptr, ptr, ptr, ptr, ptr, ptr, ptr, ptr, ptr, ptr, ptr, ptr, ptr, ptr, ptr, ptr, [64 x %struct.dt_pthread_mutex_t], %struct.dt_pthread_mutex_t, %struct.dt_pthread_mutex_t, %struct.dt_pthread_mutex_t, %struct.dt_pthread_mutex_t, %struct.dt_pthread_mutex_t, ptr, ptr, ptr, ptr, ptr, ptr, ptr, ptr, ptr, ptr, ptr, ptr, ptr, %struct.dt_lua_state_t, ptr, double, ptr, i32, [47 x i32], i32, i32, ptr, ptr, %struct.dt_sys_resources_t, %struct.dt_backthumb_t, %struct.dt_gimp_t }
%struct.dt_codepath_t = type { i8, [3 x i8] }
%struct.dt_pthread_mutex_t = type { %union.pthread_mutex_t }
%union.pthread_mutex_t = type { %struct.__pthread_mutex_s }
%struct.__pthread_mutex_s = type { i32, i32, i32, i32, i32, i16, i16, %struct.__pthread_internal_list }
%struct.__pthread_internal_list = type { ptr, ptr }
%struct.dt_lua_state_t = type { i32 }
%struct.dt_sys_resources_t = type { i64, i64, ptr, ptr, i32 }
%struct.dt_backthumb_t = type { double, double, i32, i32, i32, i32 }
%struct.dt_gimp_t = type { i32, ptr, ptr, i32, i32 }
%struct._GList = type { ptr, ptr, ptr }

@darktable = external global %struct.darktable_t, align 8
@.str = private unnamed_addr constant [41 x i8] c"[sql] %s:%d, function %s(): prepare \22%s\22\00", align 1
@.str.1 = private unnamed_addr constant [115 x i8] c"generated/home/dtcxzyw/WorkSpace/Projects/compilers/llvm-opt-benchmark/bench/darktable/darktable/src/common/tags.c\00", align 1
@stderr = external global ptr, align 8
@.str.3 = private unnamed_addr constant [53 x i8] c"sqlite3 error: %s:%d, function %s(), query \22%s\22: %s\0A\00", align 1
@.str.35 = private unnamed_addr constant [4 x i8] c"%d,\00", align 1
@.str.72 = private unnamed_addr constant [106 x i8] c"(%d,%d,  (SELECT (IFNULL(MAX(position),0) & 0xFFFFFFFF00000000) + (1 << 32)    FROM main.tagged_images)),\00", align 1
@.str.73 = private unnamed_addr constant [66 x i8] c"DELETE FROM main.tagged_images WHERE imgid = %d AND tagid IN (%s)\00", align 1
@__FUNCTION__._bulk_remove_tags = private unnamed_addr constant [18 x i8] c"_bulk_remove_tags\00", align 1
@.str.74 = private unnamed_addr constant [66 x i8] c"INSERT INTO main.tagged_images (imgid, tagid, position) VALUES %s\00", align 1
@__FUNCTION__._bulk_add_tags = private unnamed_addr constant [15 x i8] c"_bulk_add_tags\00", align 1

; Function Attrs: nounwind uwtable
define internal void @_bulk_add_tags(ptr noundef %0) #0 {
  %2 = alloca ptr, align 8
  %3 = alloca ptr, align 8
  %4 = alloca ptr, align 8
  %5 = alloca i32, align 4
  store ptr %0, ptr %2, align 8, !tbaa !6
  %6 = load ptr, ptr %2, align 8, !tbaa !6
  %7 = icmp ne ptr %6, null
  br i1 %7, label %8, label %47

8:                                                ; preds = %1
  call void @llvm.lifetime.start.p0(i64 8, ptr %3) #8
  call void @llvm.lifetime.start.p0(i64 8, ptr %4) #8
  %9 = load ptr, ptr %2, align 8, !tbaa !6
  %10 = call noalias ptr (ptr, ...) @g_strdup_printf(ptr noundef @.str.74, ptr noundef %9)
  store ptr %10, ptr %4, align 8, !tbaa !6
  br label %11

11:                                               ; preds = %8
  br label %12

12:                                               ; preds = %11
  %13 = load i32, ptr getelementptr inbounds nuw (%struct.darktable_t, ptr @darktable, i32 0, i32 2), align 8, !tbaa !14
  %14 = and i32 256, %13
  %15 = icmp ne i32 %14, 0
  br i1 %15, label %16, label %23

16:                                               ; preds = %12
  %17 = load i32, ptr getelementptr inbounds nuw (%struct.darktable_t, ptr @darktable, i32 0, i32 2), align 8, !tbaa !14
  %18 = xor i32 %17, -1
  %19 = and i32 0, %18
  %20 = icmp ne i32 %19, 0
  br i1 %20, label %23, label %21

21:                                               ; preds = %16
  %22 = load ptr, ptr %4, align 8, !tbaa !6
  call void (ptr, ...) @dt_print_ext(ptr noundef @.str, ptr noundef @.str.1, i32 noundef 107, ptr noundef @__FUNCTION__._bulk_add_tags, ptr noundef %22)
  br label %23

23:                                               ; preds = %21, %16, %12
  br label %24

24:                                               ; preds = %23
  br label %25

25:                                               ; preds = %24
  call void @llvm.lifetime.start.p0(i64 4, ptr %5) #8
  %26 = load ptr, ptr getelementptr inbounds nuw (%struct.darktable_t, ptr @darktable, i32 0, i32 18), align 8, !tbaa !51
  %27 = call ptr @dt_database_get(ptr noundef %26)
  %28 = load ptr, ptr %4, align 8, !tbaa !6
  %29 = call i32 @sqlite3_prepare_v2(ptr noundef %27, ptr noundef %28, i32 noundef -1, ptr noundef %3, ptr noundef null)
  store i32 %29, ptr %5, align 4, !tbaa !52
  %30 = load i32, ptr %5, align 4, !tbaa !52
  %31 = icmp ne i32 %30, 0
  br i1 %31, label %32, label %39

32:                                               ; preds = %25
  %33 = load ptr, ptr @stderr, align 8, !tbaa !53
  %34 = load ptr, ptr %4, align 8, !tbaa !6
  %35 = load ptr, ptr getelementptr inbounds nuw (%struct.darktable_t, ptr @darktable, i32 0, i32 18), align 8, !tbaa !51
  %36 = call ptr @dt_database_get(ptr noundef %35)
  %37 = call ptr @sqlite3_errmsg(ptr noundef %36)
  %38 = call i32 (ptr, ptr, ...) @fprintf(ptr noundef %33, ptr noundef @.str.3, ptr noundef @.str.1, i32 noundef 107, ptr noundef @__FUNCTION__._bulk_add_tags, ptr noundef %34, ptr noundef %37) #8
  br label %39

39:                                               ; preds = %32, %25
  call void @llvm.lifetime.end.p0(i64 4, ptr %5) #8
  br label %40

40:                                               ; preds = %39
  br label %41

41:                                               ; preds = %40
  %42 = load ptr, ptr %3, align 8, !tbaa !55
  %43 = call i32 @sqlite3_step(ptr noundef %42)
  %44 = load ptr, ptr %3, align 8, !tbaa !55
  %45 = call i32 @sqlite3_finalize(ptr noundef %44)
  %46 = load ptr, ptr %4, align 8, !tbaa !6
  call void @g_free(ptr noundef %46)
  call void @llvm.lifetime.end.p0(i64 8, ptr %4) #8
  call void @llvm.lifetime.end.p0(i64 8, ptr %3) #8
  br label %47

47:                                               ; preds = %41, %1
  ret void
}

; Function Attrs: nounwind uwtable
define internal void @_bulk_remove_tags(i32 noundef %0, ptr noundef %1) #0 {
  %3 = alloca i32, align 4
  %4 = alloca ptr, align 8
  %5 = alloca ptr, align 8
  %6 = alloca ptr, align 8
  %7 = alloca i32, align 4
  store i32 %0, ptr %3, align 4, !tbaa !52
  store ptr %1, ptr %4, align 8, !tbaa !6
  %8 = load i32, ptr %3, align 4, !tbaa !52
  %9 = icmp sgt i32 %8, 0
  br i1 %9, label %10, label %53

10:                                               ; preds = %2
  %11 = load ptr, ptr %4, align 8, !tbaa !6
  %12 = icmp ne ptr %11, null
  br i1 %12, label %13, label %53

13:                                               ; preds = %10
  call void @llvm.lifetime.start.p0(i64 8, ptr %5) #8
  call void @llvm.lifetime.start.p0(i64 8, ptr %6) #8
  %14 = load i32, ptr %3, align 4, !tbaa !52
  %15 = load ptr, ptr %4, align 8, !tbaa !6
  %16 = call noalias ptr (ptr, ...) @g_strdup_printf(ptr noundef @.str.73, i32 noundef %14, ptr noundef %15)
  store ptr %16, ptr %6, align 8, !tbaa !6
  br label %17

17:                                               ; preds = %13
  br label %18

18:                                               ; preds = %17
  %19 = load i32, ptr getelementptr inbounds nuw (%struct.darktable_t, ptr @darktable, i32 0, i32 2), align 8, !tbaa !14
  %20 = and i32 256, %19
  %21 = icmp ne i32 %20, 0
  br i1 %21, label %22, label %29

22:                                               ; preds = %18
  %23 = load i32, ptr getelementptr inbounds nuw (%struct.darktable_t, ptr @darktable, i32 0, i32 2), align 8, !tbaa !14
  %24 = xor i32 %23, -1
  %25 = and i32 0, %24
  %26 = icmp ne i32 %25, 0
  br i1 %26, label %29, label %27

27:                                               ; preds = %22
  %28 = load ptr, ptr %6, align 8, !tbaa !6
  call void (ptr, ...) @dt_print_ext(ptr noundef @.str, ptr noundef @.str.1, i32 noundef 92, ptr noundef @__FUNCTION__._bulk_remove_tags, ptr noundef %28)
  br label %29

29:                                               ; preds = %27, %22, %18
  br label %30

30:                                               ; preds = %29
  br label %31

31:                                               ; preds = %30
  call void @llvm.lifetime.start.p0(i64 4, ptr %7) #8
  %32 = load ptr, ptr getelementptr inbounds nuw (%struct.darktable_t, ptr @darktable, i32 0, i32 18), align 8, !tbaa !51
  %33 = call ptr @dt_database_get(ptr noundef %32)
  %34 = load ptr, ptr %6, align 8, !tbaa !6
  %35 = call i32 @sqlite3_prepare_v2(ptr noundef %33, ptr noundef %34, i32 noundef -1, ptr noundef %5, ptr noundef null)
  store i32 %35, ptr %7, align 4, !tbaa !52
  %36 = load i32, ptr %7, align 4, !tbaa !52
  %37 = icmp ne i32 %36, 0
  br i1 %37, label %38, label %45

38:                                               ; preds = %31
  %39 = load ptr, ptr @stderr, align 8, !tbaa !53
  %40 = load ptr, ptr %6, align 8, !tbaa !6
  %41 = load ptr, ptr getelementptr inbounds nuw (%struct.darktable_t, ptr @darktable, i32 0, i32 18), align 8, !tbaa !51
  %42 = call ptr @dt_database_get(ptr noundef %41)
  %43 = call ptr @sqlite3_errmsg(ptr noundef %42)
  %44 = call i32 (ptr, ptr, ...) @fprintf(ptr noundef %39, ptr noundef @.str.3, ptr noundef @.str.1, i32 noundef 92, ptr noundef @__FUNCTION__._bulk_remove_tags, ptr noundef %40, ptr noundef %43) #8
  br label %45

45:                                               ; preds = %38, %31
  call void @llvm.lifetime.end.p0(i64 4, ptr %7) #8
  br label %46

46:                                               ; preds = %45
  br label %47

47:                                               ; preds = %46
  %48 = load ptr, ptr %5, align 8, !tbaa !55
  %49 = call i32 @sqlite3_step(ptr noundef %48)
  %50 = load ptr, ptr %5, align 8, !tbaa !55
  %51 = call i32 @sqlite3_finalize(ptr noundef %50)
  %52 = load ptr, ptr %6, align 8, !tbaa !6
  call void @g_free(ptr noundef %52)
  call void @llvm.lifetime.end.p0(i64 8, ptr %6) #8
  call void @llvm.lifetime.end.p0(i64 8, ptr %5) #8
  br label %53

53:                                               ; preds = %47, %10, %2
  ret void
}

; Function Attrs: nounwind uwtable
define internal ptr @_get_tb_added_tag_string_values(i32 noundef %0, ptr noundef %1, ptr noundef %2) #0 {
  %4 = alloca i32, align 4
  %5 = alloca ptr, align 8
  %6 = alloca ptr, align 8
  %7 = alloca ptr, align 8
  %8 = alloca ptr, align 8
  %9 = alloca ptr, align 8
  store i32 %0, ptr %4, align 4, !tbaa !52
  store ptr %1, ptr %5, align 8, !tbaa !59
  store ptr %2, ptr %6, align 8, !tbaa !59
  call void @llvm.lifetime.start.p0(i64 8, ptr %7) #8
  %10 = load ptr, ptr %5, align 8, !tbaa !59
  store ptr %10, ptr %7, align 8, !tbaa !59
  call void @llvm.lifetime.start.p0(i64 8, ptr %8) #8
  store ptr null, ptr %8, align 8, !tbaa !6
  call void @llvm.lifetime.start.p0(i64 8, ptr %9) #8
  %11 = load ptr, ptr %6, align 8, !tbaa !59
  store ptr %11, ptr %9, align 8, !tbaa !59
  br label %12

12:                                               ; preds = %41, %3
  %13 = load ptr, ptr %9, align 8, !tbaa !59
  %14 = icmp ne ptr %13, null
  br i1 %14, label %16, label %15

15:                                               ; preds = %12
  call void @llvm.lifetime.end.p0(i64 8, ptr %9) #8
  br label %43

16:                                               ; preds = %12
  %17 = load ptr, ptr %7, align 8, !tbaa !59
  %18 = load ptr, ptr %9, align 8, !tbaa !59
  %19 = getelementptr inbounds nuw %struct._GList, ptr %18, i32 0, i32 0
  %20 = load ptr, ptr %19, align 8, !tbaa !60
  %21 = call ptr @g_list_find(ptr noundef %17, ptr noundef %20)
  %22 = icmp ne ptr %21, null
  br i1 %22, label %32, label %23

23:                                               ; preds = %16
  %24 = load i32, ptr %4, align 4, !tbaa !52
  %25 = sext i32 %24 to i64
  %26 = trunc i64 %25 to i32
  %27 = load ptr, ptr %9, align 8, !tbaa !59
  %28 = getelementptr inbounds nuw %struct._GList, ptr %27, i32 0, i32 0
  %29 = load ptr, ptr %28, align 8, !tbaa !60
  %30 = ptrtoint ptr %29 to i64
  %31 = trunc i64 %30 to i32
  call void (ptr, ptr, ...) @dt_util_str_cat(ptr noundef %8, ptr noundef @.str.72, i32 noundef %26, i32 noundef %31)
  br label %32

32:                                               ; preds = %23, %16
  br label %33

33:                                               ; preds = %32
  %34 = load ptr, ptr %9, align 8, !tbaa !59
  %35 = icmp ne ptr %34, null
  br i1 %35, label %36, label %40

36:                                               ; preds = %33
  %37 = load ptr, ptr %9, align 8, !tbaa !59
  %38 = getelementptr inbounds nuw %struct._GList, ptr %37, i32 0, i32 1
  %39 = load ptr, ptr %38, align 8, !tbaa !64
  br label %41

40:                                               ; preds = %33
  br label %41

41:                                               ; preds = %40, %36
  %42 = phi ptr [ %39, %36 ], [ null, %40 ]
  store ptr %42, ptr %9, align 8, !tbaa !59
  br label %12

43:                                               ; preds = %15
  %44 = load ptr, ptr %8, align 8, !tbaa !6
  %45 = icmp ne ptr %44, null
  br i1 %45, label %46, label %52

46:                                               ; preds = %43
  %47 = load ptr, ptr %8, align 8, !tbaa !6
  %48 = load ptr, ptr %8, align 8, !tbaa !6
  %49 = call i64 @strlen(ptr noundef %48) #9
  %50 = sub i64 %49, 1
  %51 = getelementptr inbounds nuw i8, ptr %47, i64 %50
  store i8 0, ptr %51, align 1, !tbaa !13
  br label %52

52:                                               ; preds = %46, %43
  %53 = load ptr, ptr %8, align 8, !tbaa !6
  call void @llvm.lifetime.end.p0(i64 8, ptr %8) #8
  call void @llvm.lifetime.end.p0(i64 8, ptr %7) #8
  ret ptr %53
}

; Function Attrs: nounwind uwtable
define internal ptr @_get_tb_removed_tag_string_values(ptr noundef %0, ptr noundef %1) #0 {
  %3 = alloca ptr, align 8
  %4 = alloca ptr, align 8
  %5 = alloca ptr, align 8
  %6 = alloca ptr, align 8
  %7 = alloca ptr, align 8
  store ptr %0, ptr %3, align 8, !tbaa !59
  store ptr %1, ptr %4, align 8, !tbaa !59
  call void @llvm.lifetime.start.p0(i64 8, ptr %5) #8
  %8 = load ptr, ptr %4, align 8, !tbaa !59
  store ptr %8, ptr %5, align 8, !tbaa !59
  call void @llvm.lifetime.start.p0(i64 8, ptr %6) #8
  store ptr null, ptr %6, align 8, !tbaa !6
  call void @llvm.lifetime.start.p0(i64 8, ptr %7) #8
  %9 = load ptr, ptr %3, align 8, !tbaa !59
  store ptr %9, ptr %7, align 8, !tbaa !59
  br label %10

10:                                               ; preds = %36, %2
  %11 = load ptr, ptr %7, align 8, !tbaa !59
  %12 = icmp ne ptr %11, null
  br i1 %12, label %14, label %13

13:                                               ; preds = %10
  call void @llvm.lifetime.end.p0(i64 8, ptr %7) #8
  br label %38

14:                                               ; preds = %10
  %15 = load ptr, ptr %5, align 8, !tbaa !59
  %16 = load ptr, ptr %7, align 8, !tbaa !59
  %17 = getelementptr inbounds nuw %struct._GList, ptr %16, i32 0, i32 0
  %18 = load ptr, ptr %17, align 8, !tbaa !60
  %19 = call ptr @g_list_find(ptr noundef %15, ptr noundef %18)
  %20 = icmp ne ptr %19, null
  br i1 %20, label %27, label %21

21:                                               ; preds = %14
  %22 = load ptr, ptr %7, align 8, !tbaa !59
  %23 = getelementptr inbounds nuw %struct._GList, ptr %22, i32 0, i32 0
  %24 = load ptr, ptr %23, align 8, !tbaa !60
  %25 = ptrtoint ptr %24 to i64
  %26 = trunc i64 %25 to i32
  call void (ptr, ptr, ...) @dt_util_str_cat(ptr noundef %6, ptr noundef @.str.35, i32 noundef %26)
  br label %27

27:                                               ; preds = %21, %14
  br label %28

28:                                               ; preds = %27
  %29 = load ptr, ptr %7, align 8, !tbaa !59
  %30 = icmp ne ptr %29, null
  br i1 %30, label %31, label %35

31:                                               ; preds = %28
  %32 = load ptr, ptr %7, align 8, !tbaa !59
  %33 = getelementptr inbounds nuw %struct._GList, ptr %32, i32 0, i32 1
  %34 = load ptr, ptr %33, align 8, !tbaa !64
  br label %36

35:                                               ; preds = %28
  br label %36

36:                                               ; preds = %35, %31
  %37 = phi ptr [ %34, %31 ], [ null, %35 ]
  store ptr %37, ptr %7, align 8, !tbaa !59
  br label %10

38:                                               ; preds = %13
  %39 = load ptr, ptr %6, align 8, !tbaa !6
  %40 = icmp ne ptr %39, null
  br i1 %40, label %41, label %47

41:                                               ; preds = %38
  %42 = load ptr, ptr %6, align 8, !tbaa !6
  %43 = load ptr, ptr %6, align 8, !tbaa !6
  %44 = call i64 @strlen(ptr noundef %43) #9
  %45 = sub i64 %44, 1
  %46 = getelementptr inbounds nuw i8, ptr %42, i64 %45
  store i8 0, ptr %46, align 1, !tbaa !13
  br label %47

47:                                               ; preds = %41, %38
  %48 = load ptr, ptr %6, align 8, !tbaa !6
  call void @llvm.lifetime.end.p0(i64 8, ptr %6) #8
  call void @llvm.lifetime.end.p0(i64 8, ptr %5) #8
  ret ptr %48
}

; Function Attrs: nounwind uwtable
define internal void @_pop_undo_execute(i32 noundef %0, ptr noundef %1, ptr noundef %2) #0 {
  %4 = alloca i32, align 4
  %5 = alloca ptr, align 8
  %6 = alloca ptr, align 8
  %7 = alloca ptr, align 8
  %8 = alloca ptr, align 8
  store i32 %0, ptr %4, align 4, !tbaa !52
  store ptr %1, ptr %5, align 8, !tbaa !59
  store ptr %2, ptr %6, align 8, !tbaa !59
  call void @llvm.lifetime.start.p0(i64 8, ptr %7) #8
  %9 = load ptr, ptr %5, align 8, !tbaa !59
  %10 = load ptr, ptr %6, align 8, !tbaa !59
  %11 = call ptr @_get_tb_removed_tag_string_values(ptr noundef %9, ptr noundef %10)
  store ptr %11, ptr %7, align 8, !tbaa !6
  call void @llvm.lifetime.start.p0(i64 8, ptr %8) #8
  %12 = load i32, ptr %4, align 4, !tbaa !52
  %13 = load ptr, ptr %5, align 8, !tbaa !59
  %14 = load ptr, ptr %6, align 8, !tbaa !59
  %15 = call ptr @_get_tb_added_tag_string_values(i32 noundef %12, ptr noundef %13, ptr noundef %14)
  store ptr %15, ptr %8, align 8, !tbaa !6
  %16 = load i32, ptr %4, align 4, !tbaa !52
  %17 = load ptr, ptr %7, align 8, !tbaa !6
  call void @_bulk_remove_tags(i32 noundef %16, ptr noundef %17)
  %18 = load ptr, ptr %8, align 8, !tbaa !6
  call void @_bulk_add_tags(ptr noundef %18)
  %19 = load ptr, ptr %7, align 8, !tbaa !6
  call void @g_free(ptr noundef %19)
  %20 = load ptr, ptr %8, align 8, !tbaa !6
  call void @g_free(ptr noundef %20)
  call void @llvm.lifetime.end.p0(i64 8, ptr %8) #8
  call void @llvm.lifetime.end.p0(i64 8, ptr %7) #8
  ret void
}