; Function Attrs: nounwind uwtable
define internal fastcc void @_pop_undo_execute(i32 noundef %0, ptr noundef %1, ptr noundef %2) unnamed_addr #0 {
  %4 = alloca ptr, align 8
  %5 = alloca ptr, align 8
  %6 = alloca ptr, align 8
  %7 = alloca ptr, align 8
  call void @llvm.lifetime.start.p0(i64 8, ptr nonnull %7) #11
  store ptr null, ptr %7, align 8, !tbaa !57
  %.not11.i = icmp eq ptr %1, null
  br i1 %.not11.i, label %_get_tb_removed_tag_string_values.exit, label %.lr.ph.i

._crit_edge.i:                                    ; preds = %14
  %.pre.i = load ptr, ptr %7, align 8, !tbaa !57
  %.not9.i = icmp eq ptr %.pre.i, null
  br i1 %.not9.i, label %_get_tb_removed_tag_string_values.exit, label %17

.lr.ph.i:                                         ; preds = %3, %14
  %.012.i = phi ptr [ %16, %14 ], [ %1, %3 ]
  %8 = load ptr, ptr %.012.i, align 8, !tbaa !58
  %9 = call ptr @g_list_find(ptr noundef %2, ptr noundef %8) #11
  %.not10.i = icmp eq ptr %9, null
  br i1 %.not10.i, label %10, label %14

10:                                               ; preds = %.lr.ph.i
  %11 = load ptr, ptr %.012.i, align 8, !tbaa !58
  %12 = ptrtoint ptr %11 to i64
  %13 = trunc i64 %12 to i32
  call void (ptr, ptr, ...) @dt_util_str_cat(ptr noundef nonnull %7, ptr noundef nonnull @.str.35, i32 noundef %13) #11
  br label %14

14:                                               ; preds = %10, %.lr.ph.i
  %15 = getelementptr inbounds nuw i8, ptr %.012.i, i64 8
  %16 = load ptr, ptr %15, align 8, !tbaa !62
  %.not.i = icmp eq ptr %16, null
  br i1 %.not.i, label %._crit_edge.i, label %.lr.ph.i

17:                                               ; preds = %._crit_edge.i
  %18 = call i64 @strlen(ptr noundef nonnull dereferenceable(1) %.pre.i) #13
  %19 = getelementptr i8, ptr %.pre.i, i64 %18
  %20 = getelementptr i8, ptr %19, i64 -1
  store i8 0, ptr %20, align 1, !tbaa !6
  %.pre13.i = load ptr, ptr %7, align 8, !tbaa !57
  br label %_get_tb_removed_tag_string_values.exit

_get_tb_removed_tag_string_values.exit:           ; preds = %3, %._crit_edge.i, %17
  %21 = phi ptr [ %.pre13.i, %17 ], [ null, %._crit_edge.i ], [ null, %3 ]
  call void @llvm.lifetime.end.p0(i64 8, ptr nonnull %7) #11
  call void @llvm.lifetime.start.p0(i64 8, ptr nonnull %6) #11
  store ptr null, ptr %6, align 8, !tbaa !57
  %.not11.i9 = icmp eq ptr %2, null
  br i1 %.not11.i9, label %_get_tb_added_tag_string_values.exit, label %.lr.ph.i10

._crit_edge.i14:                                  ; preds = %28
  %.pre.i15 = load ptr, ptr %6, align 8, !tbaa !57
  %.not9.i16 = icmp eq ptr %.pre.i15, null
  br i1 %.not9.i16, label %_get_tb_added_tag_string_values.exit, label %31

.lr.ph.i10:                                       ; preds = %_get_tb_removed_tag_string_values.exit, %28
  %.012.i11 = phi ptr [ %30, %28 ], [ %2, %_get_tb_removed_tag_string_values.exit ]
  %22 = load ptr, ptr %.012.i11, align 8, !tbaa !58
  %23 = call ptr @g_list_find(ptr noundef %1, ptr noundef %22) #11
  %.not10.i12 = icmp eq ptr %23, null
  br i1 %.not10.i12, label %24, label %28

24:                                               ; preds = %.lr.ph.i10
  %25 = load ptr, ptr %.012.i11, align 8, !tbaa !58
  %26 = ptrtoint ptr %25 to i64
  %27 = trunc i64 %26 to i32
  call void (ptr, ptr, ...) @dt_util_str_cat(ptr noundef nonnull %6, ptr noundef nonnull @.str.72, i32 noundef %0, i32 noundef %27) #11
  br label %28

28:                                               ; preds = %24, %.lr.ph.i10
  %29 = getelementptr inbounds nuw i8, ptr %.012.i11, i64 8
  %30 = load ptr, ptr %29, align 8, !tbaa !62
  %.not.i13 = icmp eq ptr %30, null
  br i1 %.not.i13, label %._crit_edge.i14, label %.lr.ph.i10

31:                                               ; preds = %._crit_edge.i14
  %32 = call i64 @strlen(ptr noundef nonnull dereferenceable(1) %.pre.i15) #13
  %33 = getelementptr i8, ptr %.pre.i15, i64 %32
  %34 = getelementptr i8, ptr %33, i64 -1
  store i8 0, ptr %34, align 1, !tbaa !6
  %.pre13.i17 = load ptr, ptr %6, align 8, !tbaa !57
  br label %_get_tb_added_tag_string_values.exit

_get_tb_added_tag_string_values.exit:             ; preds = %_get_tb_removed_tag_string_values.exit, %._crit_edge.i14, %31
  %35 = phi ptr [ %.pre13.i17, %31 ], [ null, %._crit_edge.i14 ], [ null, %_get_tb_removed_tag_string_values.exit ]
  call void @llvm.lifetime.end.p0(i64 8, ptr nonnull %6) #11
  %36 = icmp sgt i32 %0, 0
  %37 = icmp ne ptr %21, null
  %or.cond.i = and i1 %36, %37
  br i1 %or.cond.i, label %38, label %_bulk_remove_tags.exit

38:                                               ; preds = %_get_tb_added_tag_string_values.exit
  call void @llvm.lifetime.start.p0(i64 8, ptr nonnull %5) #11
  %39 = call noalias ptr (ptr, ...) @g_strdup_printf(ptr noundef nonnull @.str.73, i32 noundef %0, ptr noundef nonnull %21) #11
  %40 = load i32, ptr getelementptr inbounds nuw (i8, ptr @darktable, i64 8), align 8, !tbaa !9
  %41 = and i32 %40, 256
  %.not.i18 = icmp eq i32 %41, 0
  br i1 %.not.i18, label %43, label %42

42:                                               ; preds = %38
  call void (ptr, ...) @dt_print_ext(ptr noundef nonnull @.str, ptr noundef nonnull @.str.1, i32 noundef 92, ptr noundef nonnull @__FUNCTION__._bulk_remove_tags, ptr noundef %39) #11
  br label %43

43:                                               ; preds = %42, %38
  %44 = load ptr, ptr getelementptr inbounds nuw (i8, ptr @darktable, i64 136), align 8, !tbaa !49
  %45 = call ptr @dt_database_get(ptr noundef %44) #11
  %46 = call i32 @sqlite3_prepare_v2(ptr noundef %45, ptr noundef %39, i32 noundef -1, ptr noundef nonnull %5, ptr noundef null) #11
  %.not10.i19 = icmp eq i32 %46, 0
  br i1 %.not10.i19, label %53, label %47

47:                                               ; preds = %43
  %48 = load ptr, ptr @stderr, align 8, !tbaa !50
  %49 = load ptr, ptr getelementptr inbounds nuw (i8, ptr @darktable, i64 136), align 8, !tbaa !49
  %50 = call ptr @dt_database_get(ptr noundef %49) #11
  %51 = call ptr @sqlite3_errmsg(ptr noundef %50) #11
  %52 = call i32 (ptr, ptr, ...) @fprintf(ptr noundef %48, ptr noundef nonnull @.str.3, ptr noundef nonnull @.str.1, i32 noundef 92, ptr noundef nonnull @__FUNCTION__._bulk_remove_tags, ptr noundef %39, ptr noundef %51) #12
  br label %53

53:                                               ; preds = %47, %43
  %54 = load ptr, ptr %5, align 8, !tbaa !52
  %55 = call i32 @sqlite3_step(ptr noundef %54) #11
  %56 = load ptr, ptr %5, align 8, !tbaa !52
  %57 = call i32 @sqlite3_finalize(ptr noundef %56) #11
  call void @g_free(ptr noundef %39) #11
  call void @llvm.lifetime.end.p0(i64 8, ptr nonnull %5) #11
  br label %_bulk_remove_tags.exit

_bulk_remove_tags.exit:                           ; preds = %_get_tb_added_tag_string_values.exit, %53
  %.not.i20 = icmp eq ptr %35, null
  br i1 %.not.i20, label %_bulk_add_tags.exit, label %58

58:                                               ; preds = %_bulk_remove_tags.exit
  call void @llvm.lifetime.start.p0(i64 8, ptr nonnull %4) #11
  %59 = call noalias ptr (ptr, ...) @g_strdup_printf(ptr noundef nonnull @.str.74, ptr noundef nonnull %35) #11
  %60 = load i32, ptr getelementptr inbounds nuw (i8, ptr @darktable, i64 8), align 8, !tbaa !9
  %61 = and i32 %60, 256
  %.not6.i = icmp eq i32 %61, 0
  br i1 %.not6.i, label %63, label %62

62:                                               ; preds = %58
  call void (ptr, ...) @dt_print_ext(ptr noundef nonnull @.str, ptr noundef nonnull @.str.1, i32 noundef 107, ptr noundef nonnull @__FUNCTION__._bulk_add_tags, ptr noundef %59) #11
  br label %63

63:                                               ; preds = %62, %58
  %64 = load ptr, ptr getelementptr inbounds nuw (i8, ptr @darktable, i64 136), align 8, !tbaa !49
  %65 = call ptr @dt_database_get(ptr noundef %64) #11
  %66 = call i32 @sqlite3_prepare_v2(ptr noundef %65, ptr noundef %59, i32 noundef -1, ptr noundef nonnull %4, ptr noundef null) #11
  %.not7.i = icmp eq i32 %66, 0
  br i1 %.not7.i, label %73, label %67

67:                                               ; preds = %63
  %68 = load ptr, ptr @stderr, align 8, !tbaa !50
  %69 = load ptr, ptr getelementptr inbounds nuw (i8, ptr @darktable, i64 136), align 8, !tbaa !49
  %70 = call ptr @dt_database_get(ptr noundef %69) #11
  %71 = call ptr @sqlite3_errmsg(ptr noundef %70) #11
  %72 = call i32 (ptr, ptr, ...) @fprintf(ptr noundef %68, ptr noundef nonnull @.str.3, ptr noundef nonnull @.str.1, i32 noundef 107, ptr noundef nonnull @__FUNCTION__._bulk_add_tags, ptr noundef %59, ptr noundef %71) #12
  br label %73

73:                                               ; preds = %67, %63
  %74 = load ptr, ptr %4, align 8, !tbaa !52
  %75 = call i32 @sqlite3_step(ptr noundef %74) #11
  %76 = load ptr, ptr %4, align 8, !tbaa !52
  %77 = call i32 @sqlite3_finalize(ptr noundef %76) #11
  call void @g_free(ptr noundef %59) #11
  call void @llvm.lifetime.end.p0(i64 8, ptr nonnull %4) #11
  br label %_bulk_add_tags.exit

_bulk_add_tags.exit:                              ; preds = %_bulk_remove_tags.exit, %73
  call void @g_free(ptr noundef %21) #11
  call void @g_free(ptr noundef %35) #11
  ret void
}